; Function Attrs: mustprogress nounwind uwtable
define hidden void @_ZN6hermes3hbc7HBCISel46generateThrowIfHasRestrictedGlobalPropertyInstEPNS_38ThrowIfHasRestrictedGlobalPropertyInstEPNS_10BasicBlockE(ptr nocapture noundef nonnull readonly align 8 dereferenceable(392) %this, ptr noundef nonnull %Inst, ptr nocapture readnone %next) local_unnamed_addr #0 align 2 {
entry:
  %BCFGen_ = getelementptr inbounds i8, ptr %this, i64 8
  %0 = load ptr, ptr %BCFGen_, align 8
  %call.i = tail call noundef ptr @_ZNK6hermes11Instruction10getOperandEj(ptr noundef nonnull align 8 dereferenceable(132) %Inst, i32 noundef 0) #19
  %call2 = tail call noundef i32 @_ZNK6hermes3hbc25BytecodeFunctionGenerator15getIdentifierIDEPNS_13LiteralStringE(ptr noundef nonnull align 8 dereferenceable(200) %0, ptr noundef %call.i) #19
  %1 = load ptr, ptr %BCFGen_, align 8
  %conv = zext i32 %call2 to i64
  %call4 = tail call noundef i32 @_ZN6hermes3hbc28BytecodeInstructionGenerator38emitThrowIfHasRestrictedGlobalPropertyEl(ptr noundef nonnull align 8 dereferenceable(25) %1, i64 noundef %conv)
  ret void
}